target datalayout = "e-m:e-p270:32:32-p271:32:32-p272:64:64-i64:64-i128:128-f80:128-n8:16:32:64-S128"
target triple = "x86_64-pc-linux-gnu"

%"struct.gmx::EnumerationArray.3" = type { [3 x ptr] }
%class.WarningHandler = type { i8, %"struct.gmx::EnumerationArray", i32, i32, %"class.std::filesystem::__cxx11::path" }
%"struct.gmx::EnumerationArray" = type { [3 x i32] }
%"class.std::filesystem::__cxx11::path" = type { %"class.std::__cxx11::basic_string", %"struct.std::filesystem::__cxx11::path::_List" }
%"class.std::__cxx11::basic_string" = type { %"struct.std::__cxx11::basic_string<char>::_Alloc_hider", i64, %union.anon }
%"struct.std::__cxx11::basic_string<char>::_Alloc_hider" = type { ptr }
%union.anon = type { i64, [8 x i8] }
%"struct.std::filesystem::__cxx11::path::_List" = type { %"class.std::unique_ptr" }
%"class.std::unique_ptr" = type { %"struct.std::__uniq_ptr_data" }
%"struct.std::__uniq_ptr_data" = type { %"class.std::__uniq_ptr_impl" }
%"class.std::__uniq_ptr_impl" = type { %"class.std::tuple" }
%"class.std::tuple" = type { %"struct.std::_Tuple_impl" }
%"struct.std::_Tuple_impl" = type { %"struct.std::_Head_base.1" }
%"struct.std::_Head_base.1" = type { ptr }

@stderr = external global ptr, align 8
@_ZZL17warningTypeString11WarningTypeE15warningTypeName = internal constant %"struct.gmx::EnumerationArray.3" { [3 x ptr] [ptr @.str.5, ptr @.str.6, ptr @.str.7] }, align 8
@.str.9 = private unnamed_addr constant [4 x i8] c"was\00", align 1
@.str.10 = private unnamed_addr constant [5 x i8] c"were\00", align 1
@.str.11 = private unnamed_addr constant [1 x i8] zeroinitializer, align 1
@.str.12 = private unnamed_addr constant [2 x i8] c"s\00", align 1
@.str.13 = private unnamed_addr constant [19 x i8] c"\0AThere %s %d %s%s\0A\00", align 1
@.str.14 = private unnamed_addr constant [92 x i8] c"Too many warnings (%d).\0AIf you are sure all warnings are harmless, use the -maxwarn option.\00", align 1

; Function Attrs: mustprogress nounwind uwtable
define available_externally noundef ptr @_ZNKSt7__cxx1112basic_stringIcSt11char_traitsIcESaIcEE7_M_dataEv(ptr noundef nonnull align 8 dereferenceable(32) %0) #1 align 2 {
  %2 = alloca ptr, align 8
  store ptr %0, ptr %2, align 8, !tbaa !30
  %3 = load ptr, ptr %2, align 8
  %4 = getelementptr inbounds nuw %"class.std::__cxx11::basic_string", ptr %3, i32 0, i32 0
  %5 = getelementptr inbounds nuw %"struct.std::__cxx11::basic_string<char>::_Alloc_hider", ptr %4, i32 0, i32 0
  %6 = load ptr, ptr %5, align 8, !tbaa !42
  ret ptr %6
}

; Function Attrs: mustprogress nounwind uwtable
define linkonce_odr noundef nonnull align 8 dereferenceable(8) ptr @_ZNK3gmx16EnumerationArrayI11WarningTypePKcLS1_3EEixES1_(ptr noundef nonnull align 8 dereferenceable(24) %0, i32 noundef %1) #1 comdat align 2 {
  %3 = alloca ptr, align 8
  %4 = alloca i32, align 4
  store ptr %0, ptr %3, align 8, !tbaa !79
  store i32 %1, ptr %4, align 4, !tbaa !51
  %5 = load ptr, ptr %3, align 8
  %6 = getelementptr inbounds nuw %"struct.gmx::EnumerationArray.3", ptr %5, i32 0, i32 0
  %7 = load i32, ptr %4, align 4, !tbaa !51
  %8 = sext i32 %7 to i64
  %9 = getelementptr inbounds nuw [3 x ptr], ptr %6, i64 0, i64 %8
  ret ptr %9
}

; Function Attrs: mustprogress nounwind uwtable
define available_externally noundef ptr @_ZNKSt7__cxx1112basic_stringIcSt11char_traitsIcESaIcEE5c_strEv(ptr noundef nonnull align 8 dereferenceable(32) %0) #1 align 2 {
  %2 = alloca ptr, align 8
  store ptr %0, ptr %2, align 8, !tbaa !30
  %3 = load ptr, ptr %2, align 8
  %4 = call noundef ptr @_ZNKSt7__cxx1112basic_stringIcSt11char_traitsIcESaIcEE7_M_dataEv(ptr noundef nonnull align 8 dereferenceable(32) %3)
  ret ptr %4
}

; Function Attrs: mustprogress uwtable
define internal noundef ptr @_ZL17warningTypeString11WarningType(i32 noundef %0) #0 {
  %2 = alloca i32, align 4
  store i32 %0, ptr %2, align 4, !tbaa !51
  %3 = load i32, ptr %2, align 4, !tbaa !51
  %4 = call noundef nonnull align 8 dereferenceable(8) ptr @_ZNK3gmx16EnumerationArrayI11WarningTypePKcLS1_3EEixES1_(ptr noundef nonnull align 8 dereferenceable(24) @_ZZL17warningTypeString11WarningTypeE15warningTypeName, i32 noundef %3)
  %5 = load ptr, ptr %4, align 8, !tbaa !37
  ret ptr %5
}

; Function Attrs: mustprogress nounwind uwtable
define linkonce_odr noundef nonnull align 4 dereferenceable(4) ptr @_ZNK3gmx16EnumerationArrayI11WarningTypeiLS1_3EEixES1_(ptr noundef nonnull align 4 dereferenceable(12) %0, i32 noundef %1) #1 comdat align 2 {
  %3 = alloca ptr, align 8
  %4 = alloca i32, align 4
  store ptr %0, ptr %3, align 8, !tbaa !71
  store i32 %1, ptr %4, align 4, !tbaa !51
  %5 = load ptr, ptr %3, align 8
  %6 = getelementptr inbounds nuw %"struct.gmx::EnumerationArray", ptr %5, i32 0, i32 0
  %7 = load i32, ptr %4, align 4, !tbaa !51
  %8 = sext i32 %7 to i64
  %9 = getelementptr inbounds nuw [3 x i32], ptr %6, i64 0, i64 %8
  ret ptr %9
}

; Function Attrs: mustprogress uwtable
define linkonce_odr noundef i32 @_ZNK14WarningHandler10errorCountEv(ptr noundef nonnull align 8 dereferenceable(64) %0) #0 comdat align 2 {
  %2 = alloca ptr, align 8
  store ptr %0, ptr %2, align 8, !tbaa !4
  %3 = load ptr, ptr %2, align 8
  %4 = getelementptr inbounds nuw %class.WarningHandler, ptr %3, i32 0, i32 1
  %5 = call noundef nonnull align 4 dereferenceable(4) ptr @_ZNK3gmx16EnumerationArrayI11WarningTypeiLS1_3EEixES1_(ptr noundef nonnull align 4 dereferenceable(12) %4, i32 noundef 2)
  %6 = load i32, ptr %5, align 4, !tbaa !11
  ret i32 %6
}

; Function Attrs: mustprogress nounwind uwtable
define linkonce_odr noundef ptr @_ZNKSt10filesystem7__cxx114path5c_strEv(ptr noundef nonnull align 8 dereferenceable(40) %0) #1 comdat align 2 {
  %2 = alloca ptr, align 8
  store ptr %0, ptr %2, align 8, !tbaa !9
  %3 = load ptr, ptr %2, align 8
  %4 = getelementptr inbounds nuw %"class.std::filesystem::__cxx11::path", ptr %3, i32 0, i32 0
  %5 = call noundef ptr @_ZNKSt7__cxx1112basic_stringIcSt11char_traitsIcESaIcEE5c_strEv(ptr noundef nonnull align 8 dereferenceable(32) %4) #13
  ret ptr %5
}

; Function Attrs: mustprogress nounwind uwtable
define linkonce_odr noundef i32 @_ZNK14WarningHandler15maxWarningCountEv(ptr noundef nonnull align 8 dereferenceable(64) %0) #1 comdat align 2 {
  %2 = alloca ptr, align 8
  store ptr %0, ptr %2, align 8, !tbaa !4
  %3 = load ptr, ptr %2, align 8
  %4 = getelementptr inbounds nuw %class.WarningHandler, ptr %3, i32 0, i32 2
  %5 = load i32, ptr %4, align 8, !tbaa !105
  ret i32 %5
}

; Function Attrs: mustprogress nounwind uwtable
define linkonce_odr noundef i32 @_ZNK14WarningHandler12warningCountEv(ptr noundef nonnull align 8 dereferenceable(64) %0) #1 comdat align 2 {
  %2 = alloca ptr, align 8
  store ptr %0, ptr %2, align 8, !tbaa !4
  %3 = load ptr, ptr %2, align 8
  %4 = getelementptr inbounds nuw %class.WarningHandler, ptr %3, i32 0, i32 1
  %5 = call noundef nonnull align 4 dereferenceable(4) ptr @_ZNK3gmx16EnumerationArrayI11WarningTypeiLS1_3EEixES1_(ptr noundef nonnull align 4 dereferenceable(12) %4, i32 noundef 1)
  %6 = load i32, ptr %5, align 4, !tbaa !11
  ret i32 %6
}

; Function Attrs: mustprogress uwtable
define internal void @_ZL17printWarningCount11WarningTypei(i32 noundef %0, i32 noundef %1) #0 {
  %3 = alloca i32, align 4
  %4 = alloca i32, align 4
  store i32 %0, ptr %3, align 4, !tbaa !51
  store i32 %1, ptr %4, align 4, !tbaa !11
  %5 = load i32, ptr %4, align 4, !tbaa !11
  %6 = icmp sgt i32 %5, 0
  br i1 %6, label %7, label %19

7:                                                ; preds = %2
  %8 = load ptr, ptr @stderr, align 8, !tbaa !54
  %9 = load i32, ptr %4, align 4, !tbaa !11
  %10 = icmp eq i32 %9, 1
  %11 = select i1 %10, ptr @.str.9, ptr @.str.10
  %12 = load i32, ptr %4, align 4, !tbaa !11
  %13 = load i32, ptr %3, align 4, !tbaa !51
  %14 = call noundef ptr @_ZL17warningTypeString11WarningType(i32 noundef %13)
  %15 = load i32, ptr %4, align 4, !tbaa !11
  %16 = icmp eq i32 %15, 1
  %17 = select i1 %16, ptr @.str.11, ptr @.str.12
  %18 = call i32 (ptr, ptr, ...) @fprintf(ptr noundef %8, ptr noundef @.str.13, ptr noundef %11, i32 noundef %12, ptr noundef %14, ptr noundef %17) #13
  br label %19

19:                                               ; preds = %7, %2
  ret void
}

; Function Attrs: mustprogress nounwind uwtable
define linkonce_odr noundef i32 @_ZNK14WarningHandler9noteCountEv(ptr noundef nonnull align 8 dereferenceable(64) %0) #1 comdat align 2 {
  %2 = alloca ptr, align 8
  store ptr %0, ptr %2, align 8, !tbaa !4
  %3 = load ptr, ptr %2, align 8
  %4 = getelementptr inbounds nuw %class.WarningHandler, ptr %3, i32 0, i32 1
  %5 = call noundef nonnull align 4 dereferenceable(4) ptr @_ZNK3gmx16EnumerationArrayI11WarningTypeiLS1_3EEixES1_(ptr noundef nonnull align 4 dereferenceable(12) %4, i32 noundef 0)
  %6 = load i32, ptr %5, align 4, !tbaa !11
  ret i32 %6
}

; Function Attrs: mustprogress uwtable
define void @_Z19check_warning_errorRK14WarningHandleriRKNSt10filesystem7__cxx114pathEi(ptr noundef nonnull align 8 dereferenceable(64) %0, i32 noundef %1, ptr noundef nonnull align 8 dereferenceable(40) %2, i32 noundef %3) #0 {
  %5 = alloca ptr, align 8
  %6 = alloca i32, align 4
  %7 = alloca ptr, align 8
  %8 = alloca i32, align 4
  store ptr %0, ptr %5, align 8, !tbaa !4
  store i32 %1, ptr %6, align 4, !tbaa !11
  store ptr %2, ptr %7, align 8, !tbaa !9
  store i32 %3, ptr %8, align 4, !tbaa !11
  %9 = load ptr, ptr %5, align 8, !tbaa !4
  %10 = call noundef i32 @_ZNK14WarningHandler10errorCountEv(ptr noundef nonnull align 8 dereferenceable(64) %9)
  %11 = icmp sgt i32 %10, 0
  br i1 %11, label %12, label %17

12:                                               ; preds = %4
  %13 = load ptr, ptr %5, align 8, !tbaa !4
  %14 = load i32, ptr %6, align 4, !tbaa !11
  %15 = load ptr, ptr %7, align 8, !tbaa !9
  %16 = load i32, ptr %8, align 4, !tbaa !11
  call void @_ZL24check_warning_error_implRK14WarningHandleriRKNSt10filesystem7__cxx114pathEi(ptr noundef nonnull align 8 dereferenceable(64) %13, i32 noundef %14, ptr noundef nonnull align 8 dereferenceable(40) %15, i32 noundef %16) #16
  unreachable

17:                                               ; preds = %4
  ret void
}

; Function Attrs: mustprogress uwtable
define void @_Z12done_warningRK14WarningHandleriRKNSt10filesystem7__cxx114pathEi(ptr noundef nonnull align 8 dereferenceable(64) %0, i32 noundef %1, ptr noundef nonnull align 8 dereferenceable(40) %2, i32 noundef %3) #0 personality ptr @__gxx_personality_v0 {
  %5 = alloca ptr, align 8
  %6 = alloca i32, align 4
  %7 = alloca ptr, align 8
  %8 = alloca i32, align 4
  %9 = alloca %"class.std::filesystem::__cxx11::path", align 8
  %10 = alloca ptr, align 8
  %11 = alloca ptr, align 8
  %12 = alloca i32, align 4
  store ptr %0, ptr %5, align 8, !tbaa !4
  store i32 %1, ptr %6, align 4, !tbaa !11
  store ptr %2, ptr %7, align 8, !tbaa !9
  store i32 %3, ptr %8, align 4, !tbaa !11
  %13 = load ptr, ptr %5, align 8, !tbaa !4
  %14 = load i32, ptr %6, align 4, !tbaa !11
  %15 = load ptr, ptr %7, align 8, !tbaa !9
  %16 = load i32, ptr %8, align 4, !tbaa !11
  call void @_Z19check_warning_errorRK14WarningHandleriRKNSt10filesystem7__cxx114pathEi(ptr noundef nonnull align 8 dereferenceable(64) %13, i32 noundef %14, ptr noundef nonnull align 8 dereferenceable(40) %15, i32 noundef %16)
  %17 = load ptr, ptr %5, align 8, !tbaa !4
  %18 = call noundef i32 @_ZNK14WarningHandler9noteCountEv(ptr noundef nonnull align 8 dereferenceable(64) %17)
  call void @_ZL17printWarningCount11WarningTypei(i32 noundef 0, i32 noundef %18)
  %19 = load ptr, ptr %5, align 8, !tbaa !4
  %20 = call noundef i32 @_ZNK14WarningHandler12warningCountEv(ptr noundef nonnull align 8 dereferenceable(64) %19)
  call void @_ZL17printWarningCount11WarningTypei(i32 noundef 1, i32 noundef %20)
  %21 = load ptr, ptr %5, align 8, !tbaa !4
  %22 = call noundef i32 @_ZNK14WarningHandler12warningCountEv(ptr noundef nonnull align 8 dereferenceable(64) %21)
  %23 = load ptr, ptr %5, align 8, !tbaa !4
  %24 = call noundef i32 @_ZNK14WarningHandler15maxWarningCountEv(ptr noundef nonnull align 8 dereferenceable(64) %23)
  %25 = icmp sgt i32 %22, %24
  br i1 %25, label %26, label %38

26:                                               ; preds = %4
  %27 = load i32, ptr %6, align 4, !tbaa !11
  call void @llvm.lifetime.start.p0(i64 40, ptr %9) #13
  call void @llvm.lifetime.start.p0(i64 8, ptr %10) #13
  %28 = load ptr, ptr %7, align 8, !tbaa !9
  %29 = call noundef ptr @_ZNKSt10filesystem7__cxx114path5c_strEv(ptr noundef nonnull align 8 dereferenceable(40) %28) #13
  store ptr %29, ptr %10, align 8, !tbaa !37
  call void @_ZNSt10filesystem7__cxx114pathC2IPKcS1_EERKT_NS1_6formatE(ptr noundef nonnull align 8 dereferenceable(40) %9, ptr noundef nonnull align 8 dereferenceable(8) %10, i8 noundef zeroext 2)
  %30 = load i32, ptr %8, align 4, !tbaa !11
  %31 = load ptr, ptr %5, align 8, !tbaa !4
  %32 = call noundef i32 @_ZNK14WarningHandler12warningCountEv(ptr noundef nonnull align 8 dereferenceable(64) %31)
  invoke void (i32, ptr, i32, ptr, ...) @_Z9gmx_fataliRKNSt10filesystem7__cxx114pathEiPKcz(i32 noundef %27, ptr noundef nonnull align 8 dereferenceable(40) %9, i32 noundef %30, ptr noundef @.str.14, i32 noundef %32) #16
          to label %33 unwind label %34

33:                                               ; preds = %26
  unreachable

34:                                               ; preds = %26
  %35 = landingpad { ptr, i32 }
          cleanup
  %36 = extractvalue { ptr, i32 } %35, 0
  store ptr %36, ptr %11, align 8
  %37 = extractvalue { ptr, i32 } %35, 1
  store i32 %37, ptr %12, align 4
  call void @_ZNSt10filesystem7__cxx114pathD2Ev(ptr noundef nonnull align 8 dereferenceable(40) %9) #13
  call void @llvm.lifetime.end.p0(i64 8, ptr %10) #13
  call void @llvm.lifetime.end.p0(i64 40, ptr %9) #13
  br label %39

38:                                               ; preds = %4
  ret void

39:                                               ; preds = %34
  %40 = load ptr, ptr %11, align 8
  %41 = load i32, ptr %12, align 4
  %42 = insertvalue { ptr, i32 } poison, ptr %40, 0
  %43 = insertvalue { ptr, i32 } %42, i32 %41, 1
  resume { ptr, i32 } %43
}