; Function Attrs: mustprogress uwtable
define void @_Z12done_warningRK14WarningHandleriRKNSt10filesystem7__cxx114pathEi(ptr noundef nonnull readonly align 8 captures(none) dereferenceable(64) %0, i32 noundef %1, ptr noundef nonnull readonly align 8 captures(none) dereferenceable(40) %2, i32 noundef %3) local_unnamed_addr #0 personality ptr @__gxx_personality_v0 {
  %5 = alloca %"class.std::filesystem::__cxx11::path", align 8
  %6 = alloca ptr, align 8
  %7 = getelementptr inbounds nuw i8, ptr %0, i64 12
  %8 = load i32, ptr %7, align 4, !tbaa !35
  %9 = icmp sgt i32 %8, 0
  br i1 %9, label %10, label %_Z19check_warning_errorRK14WarningHandleriRKNSt10filesystem7__cxx114pathEi.exit

10:                                               ; preds = %4
  tail call fastcc void @_ZL24check_warning_error_implRK14WarningHandleriRKNSt10filesystem7__cxx114pathEi(ptr noundef nonnull readonly align 8 dereferenceable(64) %0, i32 noundef %1, ptr noundef nonnull readonly align 8 dereferenceable(40) %2, i32 noundef %3) #16
  unreachable

_Z19check_warning_errorRK14WarningHandleriRKNSt10filesystem7__cxx114pathEi.exit: ; preds = %4
  %11 = getelementptr inbounds nuw i8, ptr %0, i64 4
  %12 = load i32, ptr %11, align 4, !tbaa !35
  %13 = icmp sgt i32 %12, 0
  br i1 %13, label %14, label %_ZL17printWarningCount11WarningTypei.exit

14:                                               ; preds = %_Z19check_warning_errorRK14WarningHandleriRKNSt10filesystem7__cxx114pathEi.exit
  %15 = load ptr, ptr @stderr, align 8, !tbaa !37
  %16 = icmp eq i32 %12, 1
  %17 = select i1 %16, ptr @.str.9, ptr @.str.10
  %18 = select i1 %16, ptr @.str.11, ptr @.str.12
  %19 = tail call i32 (ptr, ptr, ...) @fprintf(ptr noundef %15, ptr noundef nonnull @.str.13, ptr noundef nonnull %17, i32 noundef %12, ptr noundef nonnull @.str.5, ptr noundef nonnull %18) #17
  br label %_ZL17printWarningCount11WarningTypei.exit

_ZL17printWarningCount11WarningTypei.exit:        ; preds = %_Z19check_warning_errorRK14WarningHandleriRKNSt10filesystem7__cxx114pathEi.exit, %14
  %20 = getelementptr inbounds nuw i8, ptr %0, i64 8
  %21 = load i32, ptr %20, align 8, !tbaa !35
  %22 = icmp sgt i32 %21, 0
  br i1 %22, label %23, label %_ZL17printWarningCount11WarningTypei.exit13

23:                                               ; preds = %_ZL17printWarningCount11WarningTypei.exit
  %24 = load ptr, ptr @stderr, align 8, !tbaa !37
  %25 = icmp eq i32 %21, 1
  %26 = select i1 %25, ptr @.str.9, ptr @.str.10
  %27 = select i1 %25, ptr @.str.11, ptr @.str.12
  %28 = tail call i32 (ptr, ptr, ...) @fprintf(ptr noundef %24, ptr noundef nonnull @.str.13, ptr noundef nonnull %26, i32 noundef %21, ptr noundef nonnull @.str.6, ptr noundef nonnull %27) #17
  %.pre = load i32, ptr %20, align 8, !tbaa !35
  br label %_ZL17printWarningCount11WarningTypei.exit13

_ZL17printWarningCount11WarningTypei.exit13:      ; preds = %_ZL17printWarningCount11WarningTypei.exit, %23
  %29 = phi i32 [ %21, %_ZL17printWarningCount11WarningTypei.exit ], [ %.pre, %23 ]
  %30 = getelementptr inbounds nuw i8, ptr %0, i64 16
  %31 = load i32, ptr %30, align 8, !tbaa !58
  %32 = icmp sgt i32 %29, %31
  br i1 %32, label %33, label %39

33:                                               ; preds = %_ZL17printWarningCount11WarningTypei.exit13
  call void @llvm.lifetime.start.p0(i64 40, ptr nonnull %5) #14
  call void @llvm.lifetime.start.p0(i64 8, ptr nonnull %6) #14
  %34 = load ptr, ptr %2, align 8, !tbaa !27
  store ptr %34, ptr %6, align 8, !tbaa !39
  call void @_ZNSt10filesystem7__cxx114pathC2IPKcS1_EERKT_NS1_6formatE(ptr noundef nonnull align 8 dereferenceable(40) %5, ptr noundef nonnull align 8 dereferenceable(8) %6, i8 noundef zeroext 2)
  %35 = load i32, ptr %20, align 8, !tbaa !35
  invoke void (i32, ptr, i32, ptr, ...) @_Z9gmx_fataliRKNSt10filesystem7__cxx114pathEiPKcz(i32 noundef %1, ptr noundef nonnull align 8 dereferenceable(40) %5, i32 noundef %3, ptr noundef nonnull @.str.14, i32 noundef %35) #16
          to label %36 unwind label %37

36:                                               ; preds = %33
  unreachable

37:                                               ; preds = %33
  %38 = landingpad { ptr, i32 }
          cleanup
  call void @_ZNSt10filesystem7__cxx114pathD2Ev(ptr noundef nonnull align 8 dereferenceable(40) %5) #14
  call void @llvm.lifetime.end.p0(i64 8, ptr nonnull %6) #14
  call void @llvm.lifetime.end.p0(i64 40, ptr nonnull %5) #14
  resume { ptr, i32 } %38

39:                                               ; preds = %_ZL17printWarningCount11WarningTypei.exit13
  ret void
}